target datalayout = "e-m:e-p270:32:32-p271:32:32-p272:64:64-i64:64-i128:128-f80:128-n8:16:32:64-S128"
target triple = "x86_64-pc-linux-gnu"

; Function Attrs: nounwind uwtable
define void @ff_sort_nearly_sorted_floats(ptr noundef %0, i32 noundef %1) #0 {
  %3 = alloca ptr, align 8
  %4 = alloca i32, align 4
  %5 = alloca i32, align 4
  %6 = alloca i32, align 4
  %7 = alloca float, align 4
  store ptr %0, ptr %3, align 8, !tbaa !17
  store i32 %1, ptr %4, align 4, !tbaa !9
  call void @llvm.lifetime.start.p0(i64 4, ptr %5) #3
  call void @llvm.lifetime.start.p0(i64 4, ptr %6) #3
  store i32 0, ptr %5, align 4, !tbaa !9
  br label %8

8:                                                ; preds = %62, %2
  %9 = load i32, ptr %5, align 4, !tbaa !9
  %10 = load i32, ptr %4, align 4, !tbaa !9
  %11 = sub nsw i32 %10, 1
  %12 = icmp slt i32 %9, %11
  br i1 %12, label %13, label %65

13:                                               ; preds = %8
  %14 = load i32, ptr %5, align 4, !tbaa !9
  store i32 %14, ptr %6, align 4, !tbaa !9
  br label %15

15:                                               ; preds = %58, %13
  %16 = load i32, ptr %6, align 4, !tbaa !9
  %17 = icmp sge i32 %16, 0
  br i1 %17, label %18, label %31

18:                                               ; preds = %15
  %19 = load ptr, ptr %3, align 8, !tbaa !17
  %20 = load i32, ptr %6, align 4, !tbaa !9
  %21 = sext i32 %20 to i64
  %22 = getelementptr inbounds float, ptr %19, i64 %21
  %23 = load float, ptr %22, align 4, !tbaa !21
  %24 = load ptr, ptr %3, align 8, !tbaa !17
  %25 = load i32, ptr %6, align 4, !tbaa !9
  %26 = add nsw i32 %25, 1
  %27 = sext i32 %26 to i64
  %28 = getelementptr inbounds float, ptr %24, i64 %27
  %29 = load float, ptr %28, align 4, !tbaa !21
  %30 = fcmp nsz ogt float %23, %29
  br label %31

31:                                               ; preds = %18, %15
  %32 = phi i1 [ false, %15 ], [ %30, %18 ]
  br i1 %32, label %33, label %61

33:                                               ; preds = %31
  br label %34

34:                                               ; preds = %33
  call void @llvm.lifetime.start.p0(i64 4, ptr %7) #3
  %35 = load ptr, ptr %3, align 8, !tbaa !17
  %36 = load i32, ptr %6, align 4, !tbaa !9
  %37 = add nsw i32 %36, 1
  %38 = sext i32 %37 to i64
  %39 = getelementptr inbounds float, ptr %35, i64 %38
  %40 = load float, ptr %39, align 4, !tbaa !21
  store float %40, ptr %7, align 4, !tbaa !21
  %41 = load ptr, ptr %3, align 8, !tbaa !17
  %42 = load i32, ptr %6, align 4, !tbaa !9
  %43 = sext i32 %42 to i64
  %44 = getelementptr inbounds float, ptr %41, i64 %43
  %45 = load float, ptr %44, align 4, !tbaa !21
  %46 = load ptr, ptr %3, align 8, !tbaa !17
  %47 = load i32, ptr %6, align 4, !tbaa !9
  %48 = add nsw i32 %47, 1
  %49 = sext i32 %48 to i64
  %50 = getelementptr inbounds float, ptr %46, i64 %49
  store float %45, ptr %50, align 4, !tbaa !21
  %51 = load float, ptr %7, align 4, !tbaa !21
  %52 = load ptr, ptr %3, align 8, !tbaa !17
  %53 = load i32, ptr %6, align 4, !tbaa !9
  %54 = sext i32 %53 to i64
  %55 = getelementptr inbounds float, ptr %52, i64 %54
  store float %51, ptr %55, align 4, !tbaa !21
  call void @llvm.lifetime.end.p0(i64 4, ptr %7) #3
  br label %56

56:                                               ; preds = %34
  br label %57

57:                                               ; preds = %56
  br label %58

58:                                               ; preds = %57
  %59 = load i32, ptr %6, align 4, !tbaa !9
  %60 = add nsw i32 %59, -1
  store i32 %60, ptr %6, align 4, !tbaa !9
  br label %15, !llvm.loop !35

61:                                               ; preds = %31
  br label %62

62:                                               ; preds = %61
  %63 = load i32, ptr %5, align 4, !tbaa !9
  %64 = add nsw i32 %63, 1
  store i32 %64, ptr %5, align 4, !tbaa !9
  br label %8, !llvm.loop !36

65:                                               ; preds = %8
  call void @llvm.lifetime.end.p0(i64 4, ptr %6) #3
  call void @llvm.lifetime.end.p0(i64 4, ptr %5) #3
  ret void
}