; Function Attrs: nofree norecurse nosync nounwind memory(argmem: readwrite) uwtable
define void @ff_sort_nearly_sorted_floats(ptr noundef captures(none) %0, i32 noundef %1) local_unnamed_addr #0 {
  %3 = icmp sgt i32 %1, 1
  br i1 %3, label %.preheader.preheader, label %._crit_edge

.preheader.preheader:                             ; preds = %2
  %4 = add nsw i32 %1, -1
  %wide.trip.count = zext nneg i32 %4 to i64
  br label %.lr.ph.preheader

.lr.ph.preheader:                                 ; preds = %.critedge, %.preheader.preheader
  %indvars.iv = phi i64 [ 0, %.preheader.preheader ], [ %indvars.iv.next, %.critedge ]
  br label %.lr.ph

.lr.ph:                                           ; preds = %.lr.ph.preheader, %10
  %indvars.iv24 = phi i64 [ %indvars.iv, %.lr.ph.preheader ], [ %indvars.iv.next25, %10 ]
  %5 = getelementptr inbounds nuw float, ptr %0, i64 %indvars.iv24
  %6 = load float, ptr %5, align 4, !tbaa !12
  %7 = getelementptr inbounds nuw i8, ptr %5, i64 4
  %8 = load float, ptr %7, align 4, !tbaa !12
  %9 = fcmp nsz ogt float %6, %8
  br i1 %9, label %10, label %.critedge

10:                                               ; preds = %.lr.ph
  store float %6, ptr %7, align 4, !tbaa !12
  store float %8, ptr %5, align 4, !tbaa !12
  %indvars.iv.next25 = add nsw i64 %indvars.iv24, -1
  %11 = icmp sgt i64 %indvars.iv24, 0
  br i1 %11, label %.lr.ph, label %.critedge, !llvm.loop !29

.critedge:                                        ; preds = %10, %.lr.ph
  %indvars.iv.next = add nuw nsw i64 %indvars.iv, 1
  %exitcond.not = icmp eq i64 %indvars.iv.next, %wide.trip.count
  br i1 %exitcond.not, label %._crit_edge, label %.lr.ph.preheader, !llvm.loop !30

._crit_edge:                                      ; preds = %.critedge, %2
  ret void
}